; Function Attrs: nounwind uwtable
define ptr @l_Lean_Server_Completion_forEligibleDeclsM___at___private_Lean_Server_Completion_CompletionCollectors_0__Lean_Server_Completion_forEligibleDeclsWithCancellationM___spec__1___rarg___lambda__2(ptr noundef %0, ptr noundef %1, ptr noundef %2, ptr noundef %3, ptr noundef %4, ptr noundef %5) #0 {
  %7 = ptrtoint ptr %3 to i64
  %8 = and i64 %7, 1
  %.not = icmp eq i64 %8, 0
  br i1 %.not, label %9, label %lean_inc.exit

9:                                                ; preds = %6
  %.val.i = load i32, ptr %3, align 4, !tbaa !8
  %10 = icmp sgt i32 %.val.i, 0
  br i1 %10, label %11, label %13, !prof !11

11:                                               ; preds = %9
  %12 = add nuw i32 %.val.i, 1
  store i32 %12, ptr %3, align 4, !tbaa !8
  br label %lean_inc.exit

13:                                               ; preds = %9
  %.not.i29 = icmp eq i32 %.val.i, 0
  br i1 %.not.i29, label %lean_inc.exit, label %14

14:                                               ; preds = %13
  tail call void @lean_inc_ref_cold(ptr noundef nonnull %3) #5
  br label %lean_inc.exit

lean_inc.exit:                                    ; preds = %14, %13, %11, %6
  %15 = tail call zeroext i8 @l_Lean_Meta_allowCompletion(ptr noundef %0, ptr noundef %3) #5
  %16 = icmp eq i8 %15, 0
  br i1 %16, label %17, label %50

17:                                               ; preds = %lean_inc.exit
  %18 = ptrtoint ptr %4 to i64
  %19 = and i64 %18, 1
  %.not31 = icmp eq i64 %19, 0
  br i1 %.not31, label %20, label %lean_dec.exit22

20:                                               ; preds = %17
  %21 = load i32, ptr %4, align 4, !tbaa !8
  %22 = icmp sgt i32 %21, 1
  br i1 %22, label %23, label %25, !prof !11

23:                                               ; preds = %20
  %24 = add nsw i32 %21, -1
  store i32 %24, ptr %4, align 4, !tbaa !8
  br label %lean_dec.exit22

25:                                               ; preds = %20
  %.not.i = icmp eq i32 %21, 0
  br i1 %.not.i, label %lean_dec.exit22, label %26

26:                                               ; preds = %25
  tail call void @lean_dec_ref_cold(ptr noundef nonnull %4) #5
  br label %lean_dec.exit22

lean_dec.exit22:                                  ; preds = %26, %25, %23, %17
  br i1 %.not, label %27, label %lean_dec.exit21

27:                                               ; preds = %lean_dec.exit22
  %28 = load i32, ptr %3, align 4, !tbaa !8
  %29 = icmp sgt i32 %28, 1
  br i1 %29, label %30, label %32, !prof !11

30:                                               ; preds = %27
  %31 = add nsw i32 %28, -1
  store i32 %31, ptr %3, align 4, !tbaa !8
  br label %lean_dec.exit21

32:                                               ; preds = %27
  %.not.i23 = icmp eq i32 %28, 0
  br i1 %.not.i23, label %lean_dec.exit21, label %33

33:                                               ; preds = %32
  tail call void @lean_dec_ref_cold(ptr noundef nonnull %3) #5
  br label %lean_dec.exit21

lean_dec.exit21:                                  ; preds = %33, %32, %30, %lean_dec.exit22
  %34 = ptrtoint ptr %2 to i64
  %35 = and i64 %34, 1
  %.not32 = icmp eq i64 %35, 0
  br i1 %.not32, label %36, label %lean_dec.exit20

36:                                               ; preds = %lean_dec.exit21
  %37 = load i32, ptr %2, align 4, !tbaa !8
  %38 = icmp sgt i32 %37, 1
  br i1 %38, label %39, label %41, !prof !11

39:                                               ; preds = %36
  %40 = add nsw i32 %37, -1
  store i32 %40, ptr %2, align 4, !tbaa !8
  br label %lean_dec.exit20

41:                                               ; preds = %36
  %.not.i25 = icmp eq i32 %37, 0
  br i1 %.not.i25, label %lean_dec.exit20, label %42

42:                                               ; preds = %41
  tail call void @lean_dec_ref_cold(ptr noundef nonnull %2) #5
  br label %lean_dec.exit20

lean_dec.exit20:                                  ; preds = %42, %41, %39, %lean_dec.exit21
  tail call void @lean_inc_heartbeat() #5
  %43 = tail call noalias ptr @mi_malloc_small(i64 noundef 24) #5
  %44 = icmp eq ptr %43, null
  br i1 %44, label %45, label %lean_alloc_ctor.exit

45:                                               ; preds = %lean_dec.exit20
  tail call void @lean_internal_panic_out_of_memory() #6
  unreachable

lean_alloc_ctor.exit:                             ; preds = %lean_dec.exit20
  %46 = getelementptr inbounds nuw i8, ptr %43, i64 4
  store i32 1, ptr %43, align 4, !tbaa !8
  store i32 131096, ptr %46, align 4
  %47 = getelementptr inbounds nuw i8, ptr %43, i64 8
  store ptr inttoptr (i64 1 to ptr), ptr %47, align 8, !tbaa !4
  %48 = getelementptr inbounds nuw i8, ptr %43, i64 16
  store ptr %5, ptr %48, align 8, !tbaa !4
  %49 = tail call ptr @lean_apply_2(ptr noundef %1, ptr noundef nonnull inttoptr (i64 1 to ptr), ptr noundef nonnull %43) #5
  br label %61

50:                                               ; preds = %lean_inc.exit
  %51 = ptrtoint ptr %1 to i64
  %52 = and i64 %51, 1
  %.not30 = icmp eq i64 %52, 0
  br i1 %.not30, label %53, label %lean_dec.exit

53:                                               ; preds = %50
  %54 = load i32, ptr %1, align 4, !tbaa !8
  %55 = icmp sgt i32 %54, 1
  br i1 %55, label %56, label %58, !prof !11

56:                                               ; preds = %53
  %57 = add nsw i32 %54, -1
  store i32 %57, ptr %1, align 4, !tbaa !8
  br label %lean_dec.exit

58:                                               ; preds = %53
  %.not.i27 = icmp eq i32 %54, 0
  br i1 %.not.i27, label %lean_dec.exit, label %59

59:                                               ; preds = %58
  tail call void @lean_dec_ref_cold(ptr noundef nonnull %1) #5
  br label %lean_dec.exit

lean_dec.exit:                                    ; preds = %59, %58, %56, %50
  %60 = tail call ptr @lean_apply_3(ptr noundef %2, ptr noundef %3, ptr noundef %4, ptr noundef %5) #5
  br label %61

61:                                               ; preds = %lean_dec.exit, %lean_alloc_ctor.exit
  %.0 = phi ptr [ %49, %lean_alloc_ctor.exit ], [ %60, %lean_dec.exit ]
  ret ptr %.0
}